target datalayout = "e-m:e-p270:32:32-p271:32:32-p272:64:64-i64:64-i128:128-f80:128-n8:16:32:64-S128"
target triple = "x86_64-pc-linux-gnu"

%"class.llvm::iterator_range.502" = type { %"struct.clang::StmtIterator", %"struct.clang::StmtIterator" }
%"struct.clang::StmtIterator" = type { %"class.clang::StmtIteratorImpl" }
%"class.clang::StmtIteratorImpl" = type { %"class.clang::StmtIteratorBase" }
%"class.clang::StmtIteratorBase" = type { %union.anon.503, i64, ptr }
%union.anon.503 = type { ptr }

; Function Attrs: mustprogress nounwind uwtable
define internal noundef zeroext i1 @_ZN5clang19RecursiveASTVisitorIN12_GLOBAL__N_114NamesCollectorEE9VisitStmtEPNS_4StmtE(ptr noundef nonnull align 1 dereferenceable(1) %0, ptr noundef %1) #0 align 2 {
  %3 = alloca ptr, align 8
  %4 = alloca ptr, align 8
  store ptr %0, ptr %3, align 8
  store ptr %1, ptr %4, align 8
  ret i1 true
}

; Function Attrs: mustprogress nounwind uwtable
define linkonce_odr hidden noundef ptr @_ZNK5clang16StmtIteratorBase8getVAPtrEv(ptr noundef nonnull align 8 dereferenceable(24) %0) #0 comdat align 2 {
  %2 = alloca ptr, align 8
  store ptr %0, ptr %2, align 8
  %3 = load ptr, ptr %2, align 8
  %4 = getelementptr inbounds nuw %"class.clang::StmtIteratorBase", ptr %3, i32 0, i32 1
  %5 = load i64, ptr %4, align 8
  %6 = and i64 %5, -4
  %7 = inttoptr i64 %6 to ptr
  ret ptr %7
}

; Function Attrs: mustprogress nounwind uwtable
define linkonce_odr hidden noundef zeroext i1 @_ZNK5clang16StmtIteratorBase6inStmtEv(ptr noundef nonnull align 8 dereferenceable(24) %0) #0 comdat align 2 {
  %2 = alloca ptr, align 8
  store ptr %0, ptr %2, align 8
  %3 = load ptr, ptr %2, align 8
  %4 = getelementptr inbounds nuw %"class.clang::StmtIteratorBase", ptr %3, i32 0, i32 1
  %5 = load i64, ptr %4, align 8
  %6 = and i64 %5, 3
  %7 = icmp eq i64 %6, 0
  ret i1 %7
}

; Function Attrs: mustprogress nounwind uwtable
define linkonce_odr hidden noundef zeroext i1 @_ZN5clangeqERKNS_12StmtIteratorES2_(ptr noundef nonnull align 8 dereferenceable(24) %0, ptr noundef nonnull align 8 dereferenceable(24) %1) #0 comdat {
  %3 = alloca ptr, align 8
  %4 = alloca ptr, align 8
  store ptr %0, ptr %3, align 8
  store ptr %1, ptr %4, align 8
  %5 = load ptr, ptr %3, align 8
  %6 = getelementptr inbounds nuw %"class.clang::StmtIteratorBase", ptr %5, i32 0, i32 0
  %7 = load ptr, ptr %6, align 8
  %8 = load ptr, ptr %4, align 8
  %9 = getelementptr inbounds nuw %"class.clang::StmtIteratorBase", ptr %8, i32 0, i32 0
  %10 = load ptr, ptr %9, align 8
  %11 = icmp eq ptr %7, %10
  br i1 %11, label %12, label %28

12:                                               ; preds = %2
  %13 = load ptr, ptr %3, align 8
  %14 = getelementptr inbounds nuw %"class.clang::StmtIteratorBase", ptr %13, i32 0, i32 0
  %15 = load ptr, ptr %14, align 8
  %16 = load ptr, ptr %4, align 8
  %17 = getelementptr inbounds nuw %"class.clang::StmtIteratorBase", ptr %16, i32 0, i32 0
  %18 = load ptr, ptr %17, align 8
  %19 = icmp eq ptr %15, %18
  br i1 %19, label %20, label %28

20:                                               ; preds = %12
  %21 = load ptr, ptr %3, align 8
  %22 = getelementptr inbounds nuw %"class.clang::StmtIteratorBase", ptr %21, i32 0, i32 1
  %23 = load i64, ptr %22, align 8
  %24 = load ptr, ptr %4, align 8
  %25 = getelementptr inbounds nuw %"class.clang::StmtIteratorBase", ptr %24, i32 0, i32 1
  %26 = load i64, ptr %25, align 8
  %27 = icmp eq i64 %23, %26
  br label %28

28:                                               ; preds = %20, %12, %2
  %29 = phi i1 [ false, %12 ], [ false, %2 ], [ %27, %20 ]
  ret i1 %29
}

; Function Attrs: mustprogress nounwind uwtable
define internal noundef zeroext i1 @_ZN5clang19RecursiveASTVisitorIN12_GLOBAL__N_114NamesCollectorEE18VisitObjCAtTryStmtEPNS_13ObjCAtTryStmtE(ptr noundef nonnull align 1 dereferenceable(1) %0, ptr noundef %1) #0 align 2 {
  %3 = alloca ptr, align 8
  %4 = alloca ptr, align 8
  store ptr %0, ptr %3, align 8
  store ptr %1, ptr %4, align 8
  ret i1 true
}

; Function Attrs: mustprogress nounwind uwtable
define internal noundef zeroext i1 @_ZN5clang19RecursiveASTVisitorIN12_GLOBAL__N_114NamesCollectorEE14WalkUpFromStmtEPNS_4StmtE(ptr noundef nonnull align 1 dereferenceable(1) %0, ptr noundef %1) #0 align 2 {
  %3 = alloca ptr, align 8
  %4 = alloca ptr, align 8
  store ptr %0, ptr %3, align 8
  store ptr %1, ptr %4, align 8
  %5 = load ptr, ptr %3, align 8
  %6 = call noundef nonnull align 8 dereferenceable(96) ptr @_ZN5clang19RecursiveASTVisitorIN12_GLOBAL__N_114NamesCollectorEE10getDerivedEv(ptr noundef nonnull align 1 dereferenceable(1) %5)
  %7 = load ptr, ptr %4, align 8
  %8 = call noundef zeroext i1 @_ZN5clang19RecursiveASTVisitorIN12_GLOBAL__N_114NamesCollectorEE9VisitStmtEPNS_4StmtE(ptr noundef nonnull align 1 dereferenceable(1) %6, ptr noundef %7)
  ret i1 %8
}

; Function Attrs: mustprogress nounwind uwtable
define linkonce_odr hidden noundef nonnull align 8 dereferenceable(24) ptr @_ZN5clang16StmtIteratorImplINS_12StmtIteratorERPNS_4StmtEEppEv(ptr noundef nonnull align 8 dereferenceable(24) %0) #0 comdat align 2 {
  %2 = alloca ptr, align 8
  store ptr %0, ptr %2, align 8
  %3 = load ptr, ptr %2, align 8
  %4 = call noundef zeroext i1 @_ZNK5clang16StmtIteratorBase6inStmtEv(ptr noundef nonnull align 8 dereferenceable(24) %3)
  br i1 %4, label %5, label %9

5:                                                ; preds = %1
  %6 = getelementptr inbounds nuw %"class.clang::StmtIteratorBase", ptr %3, i32 0, i32 0
  %7 = load ptr, ptr %6, align 8
  %8 = getelementptr inbounds ptr, ptr %7, i32 1
  store ptr %8, ptr %6, align 8
  br label %15

9:                                                ; preds = %1
  %10 = call noundef ptr @_ZNK5clang16StmtIteratorBase8getVAPtrEv(ptr noundef nonnull align 8 dereferenceable(24) %3)
  %11 = icmp ne ptr %10, null
  br i1 %11, label %12, label %13

12:                                               ; preds = %9
  call void @_ZN5clang16StmtIteratorBase6NextVAEv(ptr noundef nonnull align 8 dereferenceable(24) %3)
  br label %14

13:                                               ; preds = %9
  call void @_ZN5clang16StmtIteratorBase8NextDeclEb(ptr noundef nonnull align 8 dereferenceable(24) %3, i1 noundef zeroext true)
  br label %14

14:                                               ; preds = %13, %12
  br label %15

15:                                               ; preds = %14, %5
  ret ptr %3
}

; Function Attrs: mustprogress nounwind uwtable
define linkonce_odr hidden noundef nonnull align 8 dereferenceable(8) ptr @_ZNK5clang16StmtIteratorImplINS_12StmtIteratorERPNS_4StmtEEdeEv(ptr noundef nonnull align 8 dereferenceable(24) %0) #0 comdat align 2 {
  %2 = alloca ptr, align 8
  store ptr %0, ptr %2, align 8
  %3 = load ptr, ptr %2, align 8
  %4 = call noundef zeroext i1 @_ZNK5clang16StmtIteratorBase6inStmtEv(ptr noundef nonnull align 8 dereferenceable(24) %3)
  br i1 %4, label %5, label %8

5:                                                ; preds = %1
  %6 = getelementptr inbounds nuw %"class.clang::StmtIteratorBase", ptr %3, i32 0, i32 0
  %7 = load ptr, ptr %6, align 8
  br label %10

8:                                                ; preds = %1
  %9 = call noundef nonnull align 8 dereferenceable(8) ptr @_ZNK5clang16StmtIteratorBase11GetDeclExprEv(ptr noundef nonnull align 8 dereferenceable(24) %3)
  br label %10

10:                                               ; preds = %8, %5
  %11 = phi ptr [ %7, %5 ], [ %9, %8 ]
  ret ptr %11
}

; Function Attrs: mustprogress nounwind uwtable
define linkonce_odr hidden noundef zeroext i1 @_ZN5clangneERKNS_12StmtIteratorES2_(ptr noundef nonnull align 8 dereferenceable(24) %0, ptr noundef nonnull align 8 dereferenceable(24) %1) #0 comdat {
  %3 = alloca ptr, align 8
  %4 = alloca ptr, align 8
  store ptr %0, ptr %3, align 8
  store ptr %1, ptr %4, align 8
  %5 = load ptr, ptr %3, align 8
  %6 = load ptr, ptr %4, align 8
  %7 = call noundef zeroext i1 @_ZN5clangeqERKNS_12StmtIteratorES2_(ptr noundef nonnull align 8 dereferenceable(24) %5, ptr noundef nonnull align 8 dereferenceable(24) %6)
  %8 = xor i1 %7, true
  ret i1 %8
}

; Function Attrs: mustprogress nounwind uwtable
define linkonce_odr hidden void @_ZNK4llvm14iterator_rangeIN5clang12StmtIteratorEE3endEv(ptr dead_on_unwind noalias writable sret(%"struct.clang::StmtIterator") align 8 %0, ptr noundef nonnull align 8 dereferenceable(48) %1) #0 comdat align 2 {
  %3 = alloca ptr, align 8
  store ptr %1, ptr %3, align 8
  %4 = load ptr, ptr %3, align 8
  %5 = getelementptr inbounds nuw %"class.llvm::iterator_range.502", ptr %4, i32 0, i32 1
  call void @llvm.memcpy.p0.p0.i64(ptr align 8 %0, ptr align 8 %5, i64 24, i1 false)
  ret void
}

; Function Attrs: mustprogress nounwind uwtable
define linkonce_odr hidden void @_ZNK4llvm14iterator_rangeIN5clang12StmtIteratorEE5beginEv(ptr dead_on_unwind noalias writable sret(%"struct.clang::StmtIterator") align 8 %0, ptr noundef nonnull align 8 dereferenceable(48) %1) #0 comdat align 2 {
  %3 = alloca ptr, align 8
  store ptr %1, ptr %3, align 8
  %4 = load ptr, ptr %3, align 8
  %5 = getelementptr inbounds nuw %"class.llvm::iterator_range.502", ptr %4, i32 0, i32 0
  call void @llvm.memcpy.p0.p0.i64(ptr align 8 %0, ptr align 8 %5, i64 24, i1 false)
  ret void
}

; Function Attrs: mustprogress nounwind uwtable
define internal void @_ZN5clang19RecursiveASTVisitorIN12_GLOBAL__N_114NamesCollectorEE15getStmtChildrenEPNS_4StmtE(ptr dead_on_unwind noalias writable sret(%"class.llvm::iterator_range.502") align 8 %0, ptr noundef nonnull align 1 dereferenceable(1) %1, ptr noundef %2) #0 align 2 {
  %4 = alloca ptr, align 8
  %5 = alloca ptr, align 8
  store ptr %1, ptr %4, align 8
  store ptr %2, ptr %5, align 8
  %6 = load ptr, ptr %5, align 8
  call void @_ZN5clang4Stmt8childrenEv(ptr dead_on_unwind writable sret(%"class.llvm::iterator_range.502") align 8 %0, ptr noundef nonnull align 8 dereferenceable(8) %6)
  ret void
}

; Function Attrs: mustprogress nounwind uwtable
define internal noundef zeroext i1 @_ZN5clang19RecursiveASTVisitorIN12_GLOBAL__N_114NamesCollectorEE23WalkUpFromObjCAtTryStmtEPNS_13ObjCAtTryStmtE(ptr noundef nonnull align 1 dereferenceable(1) %0, ptr noundef %1) #0 align 2 {
  %3 = alloca i1, align 1
  %4 = alloca ptr, align 8
  %5 = alloca ptr, align 8
  store ptr %0, ptr %4, align 8
  store ptr %1, ptr %5, align 8
  %6 = load ptr, ptr %4, align 8
  br label %7

7:                                                ; preds = %2
  %8 = call noundef nonnull align 8 dereferenceable(96) ptr @_ZN5clang19RecursiveASTVisitorIN12_GLOBAL__N_114NamesCollectorEE10getDerivedEv(ptr noundef nonnull align 1 dereferenceable(1) %6)
  %9 = load ptr, ptr %5, align 8
  %10 = call noundef zeroext i1 @_ZN5clang19RecursiveASTVisitorIN12_GLOBAL__N_114NamesCollectorEE14WalkUpFromStmtEPNS_4StmtE(ptr noundef nonnull align 1 dereferenceable(1) %8, ptr noundef %9)
  br i1 %10, label %12, label %11

11:                                               ; preds = %7
  store i1 false, ptr %3, align 1
  br label %21

12:                                               ; preds = %7
  br label %13

13:                                               ; preds = %12
  br label %14

14:                                               ; preds = %13
  %15 = call noundef nonnull align 8 dereferenceable(96) ptr @_ZN5clang19RecursiveASTVisitorIN12_GLOBAL__N_114NamesCollectorEE10getDerivedEv(ptr noundef nonnull align 1 dereferenceable(1) %6)
  %16 = load ptr, ptr %5, align 8
  %17 = call noundef zeroext i1 @_ZN5clang19RecursiveASTVisitorIN12_GLOBAL__N_114NamesCollectorEE18VisitObjCAtTryStmtEPNS_13ObjCAtTryStmtE(ptr noundef nonnull align 1 dereferenceable(1) %15, ptr noundef %16)
  br i1 %17, label %19, label %18

18:                                               ; preds = %14
  store i1 false, ptr %3, align 1
  br label %21

19:                                               ; preds = %14
  br label %20

20:                                               ; preds = %19
  store i1 true, ptr %3, align 1
  br label %21

21:                                               ; preds = %20, %18, %11
  %22 = load i1, ptr %3, align 1
  ret i1 %22
}

; Function Attrs: mustprogress nounwind uwtable
define internal noundef zeroext i1 @_ZNK5clang19RecursiveASTVisitorIN12_GLOBAL__N_114NamesCollectorEE23shouldTraversePostOrderEv(ptr noundef nonnull align 1 dereferenceable(1) %0) #0 align 2 {
  %2 = alloca ptr, align 8
  store ptr %0, ptr %2, align 8
  ret i1 false
}

; Function Attrs: mustprogress nounwind uwtable
define internal noundef nonnull align 8 dereferenceable(96) ptr @_ZN5clang19RecursiveASTVisitorIN12_GLOBAL__N_114NamesCollectorEE10getDerivedEv(ptr noundef nonnull align 1 dereferenceable(1) %0) #0 align 2 {
  %2 = alloca ptr, align 8
  store ptr %0, ptr %2, align 8
  %3 = load ptr, ptr %2, align 8
  ret ptr %3
}

; Function Attrs: mustprogress nounwind uwtable
define internal noundef zeroext i1 @_ZN5clang19RecursiveASTVisitorIN12_GLOBAL__N_114NamesCollectorEE21TraverseObjCAtTryStmtEPNS_13ObjCAtTryStmtEPN4llvm15SmallVectorImplINS6_14PointerIntPairIPNS_4StmtELj1EbNS6_21PointerLikeTypeTraitsISA_EENS6_18PointerIntPairInfoISA_Lj1ESC_EEEEEE(ptr noundef nonnull align 1 dereferenceable(1) %0, ptr noundef %1, ptr noundef %2) #0 align 2 {
  %4 = alloca i1, align 1
  %5 = alloca ptr, align 8
  %6 = alloca ptr, align 8
  %7 = alloca ptr, align 8
  %8 = alloca i8, align 1
  %9 = alloca i8, align 1
  %10 = alloca ptr, align 8
  %11 = alloca %"class.llvm::iterator_range.502", align 8
  %12 = alloca %"struct.clang::StmtIterator", align 8
  %13 = alloca %"struct.clang::StmtIterator", align 8
  %14 = alloca ptr, align 8
  store ptr %0, ptr %5, align 8
  store ptr %1, ptr %6, align 8
  store ptr %2, ptr %7, align 8
  %15 = load ptr, ptr %5, align 8
  store i8 1, ptr %8, align 1
  store i8 1, ptr %9, align 1
  %16 = call noundef nonnull align 8 dereferenceable(96) ptr @_ZN5clang19RecursiveASTVisitorIN12_GLOBAL__N_114NamesCollectorEE10getDerivedEv(ptr noundef nonnull align 1 dereferenceable(1) %15)
  %17 = call noundef zeroext i1 @_ZNK5clang19RecursiveASTVisitorIN12_GLOBAL__N_114NamesCollectorEE23shouldTraversePostOrderEv(ptr noundef nonnull align 1 dereferenceable(1) %16)
  br i1 %17, label %26, label %18

18:                                               ; preds = %3
  br label %19

19:                                               ; preds = %18
  %20 = call noundef nonnull align 8 dereferenceable(96) ptr @_ZN5clang19RecursiveASTVisitorIN12_GLOBAL__N_114NamesCollectorEE10getDerivedEv(ptr noundef nonnull align 1 dereferenceable(1) %15)
  %21 = load ptr, ptr %6, align 8
  %22 = call noundef zeroext i1 @_ZN5clang19RecursiveASTVisitorIN12_GLOBAL__N_114NamesCollectorEE23WalkUpFromObjCAtTryStmtEPNS_13ObjCAtTryStmtE(ptr noundef nonnull align 1 dereferenceable(1) %20, ptr noundef %21)
  br i1 %22, label %24, label %23

23:                                               ; preds = %19
  store i1 false, ptr %4, align 1
  br label %74

24:                                               ; preds = %19
  br label %25

25:                                               ; preds = %24
  br label %26

26:                                               ; preds = %25, %3
  %27 = load i8, ptr %8, align 1
  %28 = trunc i8 %27 to i1
  br i1 %28, label %29, label %54

29:                                               ; preds = %26
  %30 = call noundef nonnull align 8 dereferenceable(96) ptr @_ZN5clang19RecursiveASTVisitorIN12_GLOBAL__N_114NamesCollectorEE10getDerivedEv(ptr noundef nonnull align 1 dereferenceable(1) %15)
  %31 = load ptr, ptr %6, align 8
  call void @_ZN5clang19RecursiveASTVisitorIN12_GLOBAL__N_114NamesCollectorEE15getStmtChildrenEPNS_4StmtE(ptr dead_on_unwind writable sret(%"class.llvm::iterator_range.502") align 8 %11, ptr noundef nonnull align 1 dereferenceable(1) %30, ptr noundef %31)
  store ptr %11, ptr %10, align 8
  %32 = load ptr, ptr %10, align 8
  call void @_ZNK4llvm14iterator_rangeIN5clang12StmtIteratorEE5beginEv(ptr dead_on_unwind writable sret(%"struct.clang::StmtIterator") align 8 %12, ptr noundef nonnull align 8 dereferenceable(48) %32)
  %33 = load ptr, ptr %10, align 8
  call void @_ZNK4llvm14iterator_rangeIN5clang12StmtIteratorEE3endEv(ptr dead_on_unwind writable sret(%"struct.clang::StmtIterator") align 8 %13, ptr noundef nonnull align 8 dereferenceable(48) %33)
  br label %34

34:                                               ; preds = %51, %29
  %35 = call noundef zeroext i1 @_ZN5clangneERKNS_12StmtIteratorES2_(ptr noundef nonnull align 8 dereferenceable(24) %12, ptr noundef nonnull align 8 dereferenceable(24) %13)
  br i1 %35, label %36, label %53

36:                                               ; preds = %34
  %37 = call noundef nonnull align 8 dereferenceable(8) ptr @_ZNK5clang16StmtIteratorImplINS_12StmtIteratorERPNS_4StmtEEdeEv(ptr noundef nonnull align 8 dereferenceable(24) %12)
  %38 = load ptr, ptr %37, align 8
  store ptr %38, ptr %14, align 8
  br label %39

39:                                               ; preds = %36
  br i1 true, label %40, label %44

40:                                               ; preds = %39
  %41 = load ptr, ptr %14, align 8
  %42 = load ptr, ptr %7, align 8
  %43 = call noundef zeroext i1 @_ZN5clang19RecursiveASTVisitorIN12_GLOBAL__N_114NamesCollectorEE12TraverseStmtEPNS_4StmtEPN4llvm15SmallVectorImplINS6_14PointerIntPairIS5_Lj1EbNS6_21PointerLikeTypeTraitsIS5_EENS6_18PointerIntPairInfoIS5_Lj1ESA_EEEEEE(ptr noundef nonnull align 1 dereferenceable(1) %15, ptr noundef %41, ptr noundef %42)
  br i1 %43, label %49, label %48

44:                                               ; preds = %39
  %45 = call noundef nonnull align 8 dereferenceable(96) ptr @_ZN5clang19RecursiveASTVisitorIN12_GLOBAL__N_114NamesCollectorEE10getDerivedEv(ptr noundef nonnull align 1 dereferenceable(1) %15)
  %46 = load ptr, ptr %14, align 8
  %47 = call noundef zeroext i1 @_ZN5clang19RecursiveASTVisitorIN12_GLOBAL__N_114NamesCollectorEE12TraverseStmtEPNS_4StmtEPN4llvm15SmallVectorImplINS6_14PointerIntPairIS5_Lj1EbNS6_21PointerLikeTypeTraitsIS5_EENS6_18PointerIntPairInfoIS5_Lj1ESA_EEEEEE(ptr noundef nonnull align 1 dereferenceable(1) %45, ptr noundef %46, ptr noundef null)
  br i1 %47, label %49, label %48

48:                                               ; preds = %44, %40
  store i1 false, ptr %4, align 1
  br label %74

49:                                               ; preds = %44, %40
  br label %50

50:                                               ; preds = %49
  br label %51

51:                                               ; preds = %50
  %52 = call noundef nonnull align 8 dereferenceable(24) ptr @_ZN5clang16StmtIteratorImplINS_12StmtIteratorERPNS_4StmtEEppEv(ptr noundef nonnull align 8 dereferenceable(24) %12)
  br label %34

53:                                               ; preds = %34
  br label %54

54:                                               ; preds = %53, %26
  %55 = load ptr, ptr %7, align 8
  %56 = icmp ne ptr %55, null
  br i1 %56, label %71, label %57

57:                                               ; preds = %54
  %58 = load i8, ptr %9, align 1
  %59 = trunc i8 %58 to i1
  br i1 %59, label %60, label %71

60:                                               ; preds = %57
  %61 = call noundef nonnull align 8 dereferenceable(96) ptr @_ZN5clang19RecursiveASTVisitorIN12_GLOBAL__N_114NamesCollectorEE10getDerivedEv(ptr noundef nonnull align 1 dereferenceable(1) %15)
  %62 = call noundef zeroext i1 @_ZNK5clang19RecursiveASTVisitorIN12_GLOBAL__N_114NamesCollectorEE23shouldTraversePostOrderEv(ptr noundef nonnull align 1 dereferenceable(1) %61)
  br i1 %62, label %63, label %71

63:                                               ; preds = %60
  br label %64

64:                                               ; preds = %63
  %65 = call noundef nonnull align 8 dereferenceable(96) ptr @_ZN5clang19RecursiveASTVisitorIN12_GLOBAL__N_114NamesCollectorEE10getDerivedEv(ptr noundef nonnull align 1 dereferenceable(1) %15)
  %66 = load ptr, ptr %6, align 8
  %67 = call noundef zeroext i1 @_ZN5clang19RecursiveASTVisitorIN12_GLOBAL__N_114NamesCollectorEE23WalkUpFromObjCAtTryStmtEPNS_13ObjCAtTryStmtE(ptr noundef nonnull align 1 dereferenceable(1) %65, ptr noundef %66)
  br i1 %67, label %69, label %68

68:                                               ; preds = %64
  store i1 false, ptr %4, align 1
  br label %74

69:                                               ; preds = %64
  br label %70

70:                                               ; preds = %69
  br label %71

71:                                               ; preds = %70, %60, %57, %54
  %72 = load i8, ptr %9, align 1
  %73 = trunc i8 %72 to i1
  store i1 %73, ptr %4, align 1
  br label %74

74:                                               ; preds = %71, %68, %48, %23
  %75 = load i1, ptr %4, align 1
  ret i1 %75
}